; Function Attrs: nofree norecurse nosync nounwind memory(argmem: readwrite) uwtable
define hidden void @storecompressed256(ptr noundef writeonly captures(none) %0, ptr noundef readonly captures(none) %1, ptr noundef readonly captures(none) %2, i32 noundef %3) local_unnamed_addr #3 {
  %5 = alloca [4 x i32], align 16
  %6 = alloca [4 x i64], align 16
  %.0.vec.extract8.i = load i64, ptr %1, align 32
  %7 = getelementptr inbounds nuw i8, ptr %1, i64 8
  %.8.vec.extract10.i = load i64, ptr %7, align 8
  %8 = getelementptr inbounds nuw i8, ptr %1, i64 16
  %.16.vec.extract12.i = load i64, ptr %8, align 16
  %9 = getelementptr inbounds nuw i8, ptr %1, i64 24
  %.24.vec.extract14.i = load i64, ptr %9, align 8
  %.0.vec.extract.i = load i64, ptr %2, align 32
  %10 = getelementptr inbounds nuw i8, ptr %2, i64 8
  %.8.vec.extract.i = load i64, ptr %10, align 8
  %11 = getelementptr inbounds nuw i8, ptr %2, i64 16
  %.16.vec.extract.i = load i64, ptr %11, align 16
  %12 = getelementptr inbounds nuw i8, ptr %2, i64 24
  %.24.vec.extract.i = load i64, ptr %12, align 8
  call void @llvm.lifetime.start.p0(i64 16, ptr nonnull %5) #7
  %13 = tail call range(i64 0, 65) i64 @llvm.ctpop.i64(i64 %.0.vec.extract.i)
  %14 = trunc nuw nsw i64 %13 to i32
  store i32 %14, ptr %5, align 16
  %15 = getelementptr inbounds nuw i8, ptr %5, i64 4
  %16 = tail call range(i64 0, 65) i64 @llvm.ctpop.i64(i64 %.8.vec.extract.i)
  %17 = trunc nuw nsw i64 %16 to i32
  store i32 %17, ptr %15, align 4
  %18 = getelementptr inbounds nuw i8, ptr %5, i64 8
  %19 = tail call range(i64 0, 65) i64 @llvm.ctpop.i64(i64 %.16.vec.extract.i)
  %20 = trunc nuw nsw i64 %19 to i32
  store i32 %20, ptr %18, align 8
  %21 = getelementptr inbounds nuw i8, ptr %5, i64 12
  %22 = tail call range(i64 0, 65) i64 @llvm.ctpop.i64(i64 %.24.vec.extract.i)
  %23 = trunc nuw nsw i64 %22 to i32
  store i32 %23, ptr %21, align 4
  call void @llvm.lifetime.start.p0(i64 32, ptr nonnull %6) #7
  %24 = tail call i64 @llvm.x86.bmi.pext.64(i64 %.0.vec.extract8.i, i64 %.0.vec.extract.i)
  store i64 %24, ptr %6, align 16
  %25 = getelementptr inbounds nuw i8, ptr %6, i64 8
  %26 = tail call i64 @llvm.x86.bmi.pext.64(i64 %.8.vec.extract10.i, i64 %.8.vec.extract.i)
  store i64 %26, ptr %25, align 8
  %27 = getelementptr inbounds nuw i8, ptr %6, i64 16
  %28 = tail call i64 @llvm.x86.bmi.pext.64(i64 %.16.vec.extract12.i, i64 %.16.vec.extract.i)
  store i64 %28, ptr %27, align 16
  %29 = getelementptr inbounds nuw i8, ptr %6, i64 24
  %30 = tail call i64 @llvm.x86.bmi.pext.64(i64 %.24.vec.extract14.i, i64 %.24.vec.extract.i)
  store i64 %30, ptr %29, align 8
  br label %64

31:                                               ; preds = %84
  %32 = add nuw i32 %.126.i, 7
  %33 = lshr i32 %32, 3
  switch i32 %33, label %pack_bits_64.exit [
    i32 8, label %34
    i32 7, label %35
    i32 6, label %43
    i32 5, label %48
    i32 4, label %53
    i32 3, label %55
    i32 2, label %60
    i32 1, label %62
  ]

34:                                               ; preds = %31
  store i64 %.2.i, ptr %.1.i, align 1
  br label %pack_bits_64.exit

35:                                               ; preds = %31
  %36 = trunc i64 %.2.i to i32
  store i32 %36, ptr %.1.i, align 1
  %37 = getelementptr inbounds nuw i8, ptr %.1.i, i64 4
  %38 = lshr i64 %.2.i, 32
  %39 = trunc i64 %38 to i16
  store i16 %39, ptr %37, align 1
  %40 = lshr i64 %.2.i, 48
  %41 = trunc i64 %40 to i8
  %42 = getelementptr inbounds nuw i8, ptr %.1.i, i64 6
  store i8 %41, ptr %42, align 1
  br label %pack_bits_64.exit

43:                                               ; preds = %31
  %44 = trunc i64 %.2.i to i32
  store i32 %44, ptr %.1.i, align 1
  %45 = getelementptr inbounds nuw i8, ptr %.1.i, i64 4
  %46 = lshr i64 %.2.i, 32
  %47 = trunc i64 %46 to i16
  store i16 %47, ptr %45, align 1
  br label %pack_bits_64.exit

48:                                               ; preds = %31
  %49 = trunc i64 %.2.i to i32
  store i32 %49, ptr %.1.i, align 1
  %50 = lshr i64 %.2.i, 32
  %51 = trunc i64 %50 to i8
  %52 = getelementptr inbounds nuw i8, ptr %.1.i, i64 4
  store i8 %51, ptr %52, align 1
  br label %pack_bits_64.exit

53:                                               ; preds = %31
  %54 = trunc i64 %.2.i to i32
  store i32 %54, ptr %.1.i, align 1
  br label %pack_bits_64.exit

55:                                               ; preds = %31
  %56 = trunc i64 %.2.i to i16
  store i16 %56, ptr %.1.i, align 1
  %57 = lshr i64 %.2.i, 16
  %58 = trunc i64 %57 to i8
  %59 = getelementptr inbounds nuw i8, ptr %.1.i, i64 2
  store i8 %58, ptr %59, align 1
  br label %pack_bits_64.exit

60:                                               ; preds = %31
  %61 = trunc i64 %.2.i to i16
  store i16 %61, ptr %.1.i, align 1
  br label %pack_bits_64.exit

62:                                               ; preds = %31
  %63 = trunc i64 %.2.i to i8
  store i8 %63, ptr %.1.i, align 1
  br label %pack_bits_64.exit

64:                                               ; preds = %4, %84
  %indvars.iv = phi i64 [ 0, %4 ], [ %indvars.iv.next, %84 ]
  %.0.i6 = phi ptr [ %0, %4 ], [ %.1.i, %84 ]
  %.025.i4 = phi i32 [ 0, %4 ], [ %.126.i, %84 ]
  %.027.i3 = phi i64 [ 0, %4 ], [ %.2.i, %84 ]
  %65 = getelementptr inbounds nuw i64, ptr %6, i64 %indvars.iv
  %66 = load i64, ptr %65, align 8
  %67 = zext nneg i32 %.025.i4 to i64
  %68 = shl i64 %66, %67
  %69 = or i64 %68, %.027.i3
  %70 = getelementptr inbounds nuw i32, ptr %5, i64 %indvars.iv
  %71 = load i32, ptr %70, align 4
  %72 = add i32 %71, %.025.i4
  %73 = icmp ugt i32 %72, 63
  br i1 %73, label %74, label %84

74:                                               ; preds = %64
  store i64 %69, ptr %.0.i6, align 1
  %75 = getelementptr inbounds nuw i8, ptr %.0.i6, i64 8
  %76 = add i32 %72, -64
  %77 = load i32, ptr %70, align 4
  %78 = sub i32 %77, %76
  %79 = icmp eq i32 %78, 64
  br i1 %79, label %84, label %80

80:                                               ; preds = %74
  %81 = load i64, ptr %65, align 8
  %82 = zext nneg i32 %78 to i64
  %83 = lshr i64 %81, %82
  br label %84

84:                                               ; preds = %80, %74, %64
  %.2.i = phi i64 [ %69, %64 ], [ %83, %80 ], [ 0, %74 ]
  %.126.i = phi i32 [ %72, %64 ], [ %76, %80 ], [ %76, %74 ]
  %.1.i = phi ptr [ %.0.i6, %64 ], [ %75, %80 ], [ %75, %74 ]
  %indvars.iv.next = add nuw nsw i64 %indvars.iv, 1
  %exitcond.not = icmp eq i64 %indvars.iv.next, 4
  br i1 %exitcond.not, label %31, label %64

pack_bits_64.exit:                                ; preds = %31, %34, %35, %43, %48, %53, %55, %60, %62
  call void @llvm.lifetime.end.p0(i64 32, ptr nonnull %6) #7
  call void @llvm.lifetime.end.p0(i64 16, ptr nonnull %5) #7
  ret void
}